; Function Attrs: mustprogress sspstrong uwtable
define void @_ZN4FLAC7Encoder4FileC2Ev(ptr nocapture noundef nonnull writeonly align 8 dereferenceable(16) %this) unnamed_addr #0 align 2 {
entry:
  store ptr getelementptr inbounds ({ [60 x ptr] }, ptr @_ZTVN4FLAC7Encoder6StreamE, i64 0, i32 0, i64 2), ptr %this, align 8
  %encoder_.i = getelementptr inbounds i8, ptr %this, i64 8
  %call.i = tail call ptr @FLAC__stream_encoder_new()
  store ptr %call.i, ptr %encoder_.i, align 8
  store ptr getelementptr inbounds ({ [67 x ptr] }, ptr @_ZTVN4FLAC7Encoder4FileE, i64 0, i32 0, i64 2), ptr %this, align 8
  ret void
}